	.file	"simplesync.c"
	.text
.Ltext0:
	.section	.rodata.str1.8,"aMS",@progbits,1
	.align 8
.LC0:
	.string	"About to increase variable %d times\n"
	.section	.rodata.str1.1,"aMS",@progbits,1
.LC1:
	.string	"pthread_mutex_lock"
.LC2:
	.string	"pthread_mutex_unlock"
.LC3:
	.string	"Done increasing variable.\n"
	.text
	.p2align 4
	.globl	increase_fn
	.type	increase_fn, @function
increase_fn:
.LVL0:
.LFB23:
	.file 1 "simplesync.c"
	.loc 1 43 1 view -0
	.cfi_startproc
	.loc 1 44 2 view .LVU1
	.loc 1 45 2 view .LVU2
	.loc 1 43 1 is_stmt 0 view .LVU3
	pushq	%r13
	.cfi_def_cfa_offset 16
	.cfi_offset 13, -16
	.loc 1 47 2 view .LVU4
	movl	$10000000, %edx
	leaq	.LC0(%rip), %rsi
	xorl	%eax, %eax
	.loc 1 43 1 view .LVU5
	pushq	%r12
	.cfi_def_cfa_offset 24
	.cfi_offset 12, -24
	movq	%rdi, %r12
.LVL1:
	.loc 1 47 2 is_stmt 1 view .LVU6
.LBB2:
	.loc 1 57 10 is_stmt 0 view .LVU7
	leaq	mutex(%rip), %r13
.LBE2:
	.loc 1 43 1 view .LVU8
	pushq	%rbp
	.cfi_def_cfa_offset 32
	.cfi_offset 6, -32
	.loc 1 47 2 view .LVU9
	movl	$10000000, %ebp
	.loc 1 43 1 view .LVU10
	pushq	%rbx
	.cfi_def_cfa_offset 40
	.cfi_offset 3, -40
	subq	$8, %rsp
	.cfi_def_cfa_offset 48
	.loc 1 47 2 view .LVU11
	movq	stderr(%rip), %rdi
.LVL2:
	.loc 1 47 2 view .LVU12
	call	fprintf@PLT
.LVL3:
	.loc 1 48 2 is_stmt 1 view .LVU13
	.loc 1 48 14 view .LVU14
	jmp	.L4
.LVL4:
	.p2align 4,,10
	.p2align 3
.L2:
.LBB3:
	.loc 1 59 5 discriminator 1 view .LVU15
	.loc 1 61 4 discriminator 1 view .LVU16
	.loc 1 61 7 is_stmt 0 discriminator 1 view .LVU17
	movl	(%r12), %eax
	.loc 1 63 10 discriminator 1 view .LVU18
	movq	%r13, %rdi
	.loc 1 61 4 discriminator 1 view .LVU19
	addl	$1, %eax
	movl	%eax, (%r12)
	.loc 1 63 4 is_stmt 1 discriminator 1 view .LVU20
	.loc 1 63 10 is_stmt 0 discriminator 1 view .LVU21
	call	pthread_mutex_unlock@PLT
.LVL5:
	movl	%eax, %ebx
.LVL6:
	.loc 1 64 4 is_stmt 1 discriminator 1 view .LVU22
	.loc 1 64 6 is_stmt 0 discriminator 1 view .LVU23
	testl	%eax, %eax
	jne	.L14
	.loc 1 65 5 is_stmt 1 discriminator 1 view .LVU24
.LBE3:
	.loc 1 48 21 discriminator 1 view .LVU25
.LVL7:
	.loc 1 48 14 discriminator 1 view .LVU26
	.loc 1 48 2 is_stmt 0 discriminator 1 view .LVU27
	subl	$1, %ebp
.LVL8:
	.loc 1 48 2 discriminator 1 view .LVU28
	je	.L15
.LVL9:
.L4:
	.loc 1 49 3 is_stmt 1 view .LVU29
.LBB4:
	.loc 1 56 4 view .LVU30
	.loc 1 57 4 view .LVU31
	.loc 1 57 10 is_stmt 0 view .LVU32
	movq	%r13, %rdi
	call	pthread_mutex_lock@PLT
.LVL10:
	movl	%eax, %ebx
.LVL11:
	.loc 1 58 4 is_stmt 1 view .LVU33
	.loc 1 58 6 is_stmt 0 view .LVU34
	testl	%eax, %eax
	je	.L2
	.loc 1 59 5 is_stmt 1 view .LVU35
	.loc 1 59 5 view .LVU36
	call	__errno_location@PLT
.LVL12:
	.loc 1 59 5 is_stmt 0 view .LVU37
	leaq	.LC1(%rip), %rdi
	movl	%ebx, (%rax)
	.loc 1 59 5 is_stmt 1 view .LVU38
	call	perror@PLT
.LVL13:
	jmp	.L2
.LVL14:
	.p2align 4,,10
	.p2align 3
.L14:
	.loc 1 65 5 view .LVU39
	.loc 1 65 5 view .LVU40
	call	__errno_location@PLT
.LVL15:
	.loc 1 65 5 is_stmt 0 view .LVU41
	leaq	.LC2(%rip), %rdi
	movl	%ebx, (%rax)
	.loc 1 65 5 is_stmt 1 view .LVU42
	call	perror@PLT
.LVL16:
	.loc 1 65 5 view .LVU43
.LBE4:
	.loc 1 48 21 view .LVU44
	.loc 1 48 14 view .LVU45
	.loc 1 48 2 is_stmt 0 view .LVU46
	subl	$1, %ebp
.LVL17:
	.loc 1 48 2 view .LVU47
	jne	.L4
.LVL18:
.L15:
	.loc 1 68 2 is_stmt 1 view .LVU48
	movq	stderr(%rip), %rcx
	movl	$26, %edx
	movl	$1, %esi
	leaq	.LC3(%rip), %rdi
	call	fwrite@PLT
.LVL19:
	.loc 1 70 2 view .LVU49
	.loc 1 71 1 is_stmt 0 view .LVU50
	addq	$8, %rsp
	.cfi_def_cfa_offset 40
	xorl	%eax, %eax
	popq	%rbx
	.cfi_def_cfa_offset 32
.LVL20:
	.loc 1 71 1 view .LVU51
	popq	%rbp
	.cfi_def_cfa_offset 24
	popq	%r12
	.cfi_def_cfa_offset 16
.LVL21:
	.loc 1 71 1 view .LVU52
	popq	%r13
	.cfi_def_cfa_offset 8
	ret
	.cfi_endproc
.LFE23:
	.size	increase_fn, .-increase_fn
	.section	.rodata.str1.8
	.align 8
.LC4:
	.string	"About to decrease variable %d times\n"
	.section	.rodata.str1.1
.LC5:
	.string	"Done decreasing variable.\n"
	.text
	.p2align 4
	.globl	decrease_fn
	.type	decrease_fn, @function
decrease_fn:
.LVL22:
.LFB24:
	.loc 1 74 1 is_stmt 1 view -0
	.cfi_startproc
	.loc 1 75 2 view .LVU54
	.loc 1 76 2 view .LVU55
	.loc 1 74 1 is_stmt 0 view .LVU56
	pushq	%r13
	.cfi_def_cfa_offset 16
	.cfi_offset 13, -16
	.loc 1 78 2 view .LVU57
	movl	$10000000, %edx
	leaq	.LC4(%rip), %rsi
	xorl	%eax, %eax
	.loc 1 74 1 view .LVU58
	pushq	%r12
	.cfi_def_cfa_offset 24
	.cfi_offset 12, -24
	movq	%rdi, %r12
.LVL23:
	.loc 1 78 2 is_stmt 1 view .LVU59
.LBB5:
	.loc 1 88 10 is_stmt 0 view .LVU60
	leaq	mutex(%rip), %r13
.LBE5:
	.loc 1 74 1 view .LVU61
	pushq	%rbp
	.cfi_def_cfa_offset 32
	.cfi_offset 6, -32
	.loc 1 78 2 view .LVU62
	movl	$10000000, %ebp
	.loc 1 74 1 view .LVU63
	pushq	%rbx
	.cfi_def_cfa_offset 40
	.cfi_offset 3, -40
	subq	$8, %rsp
	.cfi_def_cfa_offset 48
	.loc 1 78 2 view .LVU64
	movq	stderr(%rip), %rdi
.LVL24:
	.loc 1 78 2 view .LVU65
	call	fprintf@PLT
.LVL25:
	.loc 1 79 2 is_stmt 1 view .LVU66
	.loc 1 79 14 view .LVU67
	jmp	.L19
.LVL26:
	.p2align 4,,10
	.p2align 3
.L17:
.LBB6:
	.loc 1 90 5 discriminator 1 view .LVU68
	.loc 1 92 4 discriminator 1 view .LVU69
	.loc 1 92 7 is_stmt 0 discriminator 1 view .LVU70
	movl	(%r12), %eax
	.loc 1 94 10 discriminator 1 view .LVU71
	movq	%r13, %rdi
	.loc 1 92 4 discriminator 1 view .LVU72
	subl	$1, %eax
	movl	%eax, (%r12)
	.loc 1 94 4 is_stmt 1 discriminator 1 view .LVU73
	.loc 1 94 10 is_stmt 0 discriminator 1 view .LVU74
	call	pthread_mutex_unlock@PLT
.LVL27:
	movl	%eax, %ebx
.LVL28:
	.loc 1 95 4 is_stmt 1 discriminator 1 view .LVU75
	.loc 1 95 6 is_stmt 0 discriminator 1 view .LVU76
	testl	%eax, %eax
	jne	.L28
	.loc 1 96 5 is_stmt 1 discriminator 1 view .LVU77
.LBE6:
	.loc 1 79 21 discriminator 1 view .LVU78
.LVL29:
	.loc 1 79 14 discriminator 1 view .LVU79
	.loc 1 79 2 is_stmt 0 discriminator 1 view .LVU80
	subl	$1, %ebp
.LVL30:
	.loc 1 79 2 discriminator 1 view .LVU81
	je	.L29
.LVL31:
.L19:
	.loc 1 80 3 is_stmt 1 view .LVU82
.LBB7:
	.loc 1 87 4 view .LVU83
	.loc 1 88 4 view .LVU84
	.loc 1 88 10 is_stmt 0 view .LVU85
	movq	%r13, %rdi
	call	pthread_mutex_lock@PLT
.LVL32:
	movl	%eax, %ebx
.LVL33:
	.loc 1 89 4 is_stmt 1 view .LVU86
	.loc 1 89 6 is_stmt 0 view .LVU87
	testl	%eax, %eax
	je	.L17
	.loc 1 90 5 is_stmt 1 view .LVU88
	.loc 1 90 5 view .LVU89
	call	__errno_location@PLT
.LVL34:
	.loc 1 90 5 is_stmt 0 view .LVU90
	leaq	.LC1(%rip), %rdi
	movl	%ebx, (%rax)
	.loc 1 90 5 is_stmt 1 view .LVU91
	call	perror@PLT
.LVL35:
	jmp	.L17
.LVL36:
	.p2align 4,,10
	.p2align 3
.L28:
	.loc 1 96 5 view .LVU92
	.loc 1 96 5 view .LVU93
	call	__errno_location@PLT
.LVL37:
	.loc 1 96 5 is_stmt 0 view .LVU94
	leaq	.LC2(%rip), %rdi
	movl	%ebx, (%rax)
	.loc 1 96 5 is_stmt 1 view .LVU95
	call	perror@PLT
.LVL38:
	.loc 1 96 5 view .LVU96
.LBE7:
	.loc 1 79 21 view .LVU97
	.loc 1 79 14 view .LVU98
	.loc 1 79 2 is_stmt 0 view .LVU99
	subl	$1, %ebp
.LVL39:
	.loc 1 79 2 view .LVU100
	jne	.L19
.LVL40:
.L29:
	.loc 1 99 2 is_stmt 1 view .LVU101
	movq	stderr(%rip), %rcx
	movl	$26, %edx
	movl	$1, %esi
	leaq	.LC5(%rip), %rdi
	call	fwrite@PLT
.LVL41:
	.loc 1 101 2 view .LVU102
	.loc 1 102 1 is_stmt 0 view .LVU103
	addq	$8, %rsp
	.cfi_def_cfa_offset 40
	xorl	%eax, %eax
	popq	%rbx
	.cfi_def_cfa_offset 32
.LVL42:
	.loc 1 102 1 view .LVU104
	popq	%rbp
	.cfi_def_cfa_offset 24
	popq	%r12
	.cfi_def_cfa_offset 16
.LVL43:
	.loc 1 102 1 view .LVU105
	popq	%r13
	.cfi_def_cfa_offset 8
	ret
	.cfi_endproc
.LFE24:
	.size	decrease_fn, .-decrease_fn
	.section	.rodata.str1.1
.LC6:
	.string	"NOT "
.LC7:
	.string	""
.LC8:
	.string	"pthread_create"
.LC9:
	.string	"pthread_join"
.LC10:
	.string	"pthread_mutex_destroy"
.LC11:
	.string	"%sOK, val = %d.\n"
	.section	.text.startup,"ax",@progbits
	.p2align 4
	.globl	main
	.type	main, @function
main:
.LVL44:
.LFB25:
	.loc 1 106 1 is_stmt 1 view -0
	.cfi_startproc
	.loc 1 107 2 view .LVU107
	.loc 1 108 2 view .LVU108
	.loc 1 113 2 view .LVU109
	.loc 1 106 1 is_stmt 0 view .LVU110
	pushq	%r13
	.cfi_def_cfa_offset 16
	.cfi_offset 13, -16
	.loc 1 118 8 view .LVU111
	xorl	%esi, %esi
.LVL45:
	.loc 1 118 8 view .LVU112
	leaq	increase_fn(%rip), %rdx
	.loc 1 106 1 view .LVU113
	pushq	%r12
	.cfi_def_cfa_offset 24
	.cfi_offset 12, -24
	pushq	%rbx
	.cfi_def_cfa_offset 32
	.cfi_offset 3, -32
	subq	$32, %rsp
	.cfi_def_cfa_offset 64
	.loc 1 118 8 view .LVU114
	leaq	12(%rsp), %r12
	leaq	16(%rsp), %rdi
	.loc 1 113 6 view .LVU115
	movl	$0, 12(%rsp)
	.loc 1 118 2 is_stmt 1 view .LVU116
	.loc 1 118 8 is_stmt 0 view .LVU117
	movq	%r12, %rcx
	call	pthread_create@PLT
.LVL46:
	.loc 1 119 2 is_stmt 1 view .LVU118
	.loc 1 119 5 is_stmt 0 view .LVU119
	testl	%eax, %eax
	jne	.L49
	.loc 1 123 2 is_stmt 1 view .LVU120
	.loc 1 123 8 is_stmt 0 view .LVU121
	leaq	24(%rsp), %rdi
	movq	%r12, %rcx
	leaq	decrease_fn(%rip), %rdx
	xorl	%esi, %esi
	call	pthread_create@PLT
.LVL47:
	.loc 1 123 8 view .LVU122
	movl	%eax, %ebx
.LVL48:
	.loc 1 124 2 is_stmt 1 view .LVU123
	.loc 1 124 5 is_stmt 0 view .LVU124
	testl	%eax, %eax
	jne	.L48
	.loc 1 133 2 is_stmt 1 view .LVU125
	.loc 1 133 8 is_stmt 0 view .LVU126
	movq	16(%rsp), %rdi
	xorl	%esi, %esi
	call	pthread_join@PLT
.LVL49:
	.loc 1 133 8 view .LVU127
	movl	%eax, %ebx
.LVL50:
	.loc 1 134 2 is_stmt 1 view .LVU128
	.loc 1 134 5 is_stmt 0 view .LVU129
	testl	%eax, %eax
	jne	.L50
.LVL51:
.L33:
	.loc 1 135 3 is_stmt 1 discriminator 1 view .LVU130
	.loc 1 136 2 discriminator 1 view .LVU131
	.loc 1 136 8 is_stmt 0 discriminator 1 view .LVU132
	movq	24(%rsp), %rdi
	xorl	%esi, %esi
	call	pthread_join@PLT
.LVL52:
	movl	%eax, %ebx
.LVL53:
	.loc 1 137 2 is_stmt 1 discriminator 1 view .LVU133
	.loc 1 137 5 is_stmt 0 discriminator 1 view .LVU134
	testl	%eax, %eax
	jne	.L51
.LVL54:
.L34:
	.loc 1 138 3 is_stmt 1 discriminator 1 view .LVU135
	.loc 1 143 2 discriminator 1 view .LVU136
	.loc 1 143 12 is_stmt 0 discriminator 1 view .LVU137
	movl	12(%rsp), %r12d
	xorl	%r13d, %r13d
	.loc 1 145 8 discriminator 1 view .LVU138
	leaq	mutex(%rip), %rdi
	.loc 1 143 12 discriminator 1 view .LVU139
	testl	%r12d, %r12d
	sete	%r13b
.LVL55:
	.loc 1 145 2 is_stmt 1 discriminator 1 view .LVU140
	.loc 1 145 8 is_stmt 0 discriminator 1 view .LVU141
	call	pthread_mutex_destroy@PLT
.LVL56:
	movl	%eax, %ebx
.LVL57:
	.loc 1 146 2 is_stmt 1 discriminator 1 view .LVU142
	.loc 1 146 4 is_stmt 0 discriminator 1 view .LVU143
	testl	%eax, %eax
	jne	.L52
.LVL58:
.L35:
	.loc 1 147 3 is_stmt 1 discriminator 1 view .LVU144
	.loc 1 149 2 discriminator 1 view .LVU145
	testl	%r12d, %r12d
	leaq	.LC7(%rip), %rax
	movl	12(%rsp), %edx
	leaq	.LC6(%rip), %rsi
	cmove	%rax, %rsi
	leaq	.LC11(%rip), %rdi
	xorl	%eax, %eax
	call	printf@PLT
.LVL59:
	.loc 1 150 2 discriminator 1 view .LVU146
	.loc 1 151 1 is_stmt 0 discriminator 1 view .LVU147
	addq	$32, %rsp
	.cfi_remember_state
	.cfi_def_cfa_offset 32
	movl	%r13d, %eax
	popq	%rbx
	.cfi_def_cfa_offset 24
.LVL60:
	.loc 1 151 1 discriminator 1 view .LVU148
	popq	%r12
	.cfi_def_cfa_offset 16
	popq	%r13
	.cfi_def_cfa_offset 8
.LVL61:
	.loc 1 151 1 discriminator 1 view .LVU149
	ret
.LVL62:
.L50:
	.cfi_restore_state
	.loc 1 135 3 is_stmt 1 view .LVU150
	.loc 1 135 3 view .LVU151
	call	__errno_location@PLT
.LVL63:
	.loc 1 135 3 is_stmt 0 view .LVU152
	leaq	.LC9(%rip), %rdi
	movl	%ebx, (%rax)
	.loc 1 135 3 is_stmt 1 view .LVU153
	call	perror@PLT
.LVL64:
	jmp	.L33
.LVL65:
.L52:
	.loc 1 147 3 view .LVU154
	.loc 1 147 3 view .LVU155
	call	__errno_location@PLT
.LVL66:
	.loc 1 147 3 is_stmt 0 view .LVU156
	leaq	.LC10(%rip), %rdi
	movl	%ebx, (%rax)
	.loc 1 147 3 is_stmt 1 view .LVU157
	call	perror@PLT
.LVL67:
	jmp	.L35
.LVL68:
.L51:
	.loc 1 138 3 view .LVU158
	.loc 1 138 3 view .LVU159
	call	__errno_location@PLT
.LVL69:
	.loc 1 138 3 is_stmt 0 view .LVU160
	leaq	.LC9(%rip), %rdi
	movl	%ebx, (%rax)
	.loc 1 138 3 is_stmt 1 view .LVU161
	call	perror@PLT
.LVL70:
	jmp	.L34
.LVL71:
.L49:
	.loc 1 138 3 is_stmt 0 view .LVU162
	movl	%eax, %ebx
	.loc 1 120 3 is_stmt 1 view .LVU163
	.loc 1 120 3 view .LVU164
.LVL72:
.L48:
	.loc 1 125 3 view .LVU165
	.loc 1 125 3 view .LVU166
	call	__errno_location@PLT
.LVL73:
	leaq	.LC8(%rip), %rdi
	movl	%ebx, (%rax)
	.loc 1 125 3 view .LVU167
	call	perror@PLT
.LVL74:
	.loc 1 125 3 view .LVU168
	.loc 1 126 3 view .LVU169
	movl	$1, %edi
	call	exit@PLT
.LVL75:
	.cfi_endproc
.LFE25:
	.size	main, .-main
	.globl	mutex
	.bss
	.align 32
	.type	mutex, @object
	.size	mutex, 40
mutex:
	.zero	40
	.text
.Letext0:
	.file 2 "/usr/lib/gcc/x86_64-linux-gnu/10/include/stddef.h"
	.file 3 "/usr/include/x86_64-linux-gnu/bits/types.h"
	.file 4 "/usr/include/x86_64-linux-gnu/bits/types/struct_FILE.h"
	.file 5 "/usr/include/x86_64-linux-gnu/bits/types/FILE.h"
	.file 6 "/usr/include/x86_64-linux-gnu/bits/thread-shared-types.h"
	.file 7 "/usr/include/x86_64-linux-gnu/bits/struct_mutex.h"
	.file 8 "/usr/include/x86_64-linux-gnu/bits/pthreadtypes.h"
	.file 9 "/usr/include/stdio.h"
	.file 10 "/usr/include/pthread.h"
	.file 11 "/usr/include/errno.h"
	.file 12 "/usr/include/stdlib.h"
	.file 13 "<built-in>"
	.section	.note.GNU-stack,"",@progbits
